; Function Attrs: nounwind uwtable
define void @Msat_IntVecFill(ptr noundef captures(none) initializes((8, 12)) %0, i32 noundef %1, i32 noundef %2) local_unnamed_addr #7 {
  %4 = getelementptr inbounds nuw i8, ptr %0, i64 12
  %5 = load i32, ptr %4, align 4, !tbaa !10
  %.not.i = icmp slt i32 %5, %1
  br i1 %.not.i, label %6, label %Msat_IntVecGrow.exit

6:                                                ; preds = %3
  %7 = load ptr, ptr %0, align 8, !tbaa !11
  %.not9.i = icmp eq ptr %7, null
  %8 = sext i32 %1 to i64
  %9 = shl nsw i64 %8, 2
  br i1 %.not9.i, label %12, label %10

10:                                               ; preds = %6
  %11 = tail call ptr @realloc(ptr noundef nonnull %7, i64 noundef %9) #21
  br label %14

12:                                               ; preds = %6
  %13 = tail call noalias ptr @malloc(i64 noundef %9) #19
  br label %14

14:                                               ; preds = %12, %10
  %15 = phi ptr [ %11, %10 ], [ %13, %12 ]
  store ptr %15, ptr %0, align 8, !tbaa !11
  store i32 %1, ptr %4, align 4, !tbaa !10
  br label %Msat_IntVecGrow.exit

Msat_IntVecGrow.exit:                             ; preds = %3, %14
  %16 = getelementptr inbounds nuw i8, ptr %0, i64 8
  store i32 %1, ptr %16, align 8, !tbaa !3
  %17 = icmp sgt i32 %1, 0
  br i1 %17, label %.lr.ph, label %._crit_edge

.lr.ph:                                           ; preds = %Msat_IntVecGrow.exit
  %18 = load ptr, ptr %0, align 8, !tbaa !11
  br label %19

19:                                               ; preds = %.lr.ph, %19
  %indvars.iv = phi i64 [ 0, %.lr.ph ], [ %indvars.iv.next, %19 ]
  %20 = getelementptr inbounds nuw i32, ptr %18, i64 %indvars.iv
  store i32 %2, ptr %20, align 4, !tbaa !12
  %indvars.iv.next = add nuw nsw i64 %indvars.iv, 1
  %21 = load i32, ptr %16, align 8, !tbaa !3
  %22 = sext i32 %21 to i64
  %23 = icmp slt i64 %indvars.iv.next, %22
  br i1 %23, label %19, label %._crit_edge, !llvm.loop !13

._crit_edge:                                      ; preds = %19, %Msat_IntVecGrow.exit
  ret void
}